; Function Attrs: mustprogress uwtable
define hidden void @_ZN2cv9BitStream6putIntEj(ptr noundef nonnull align 8 dereferenceable(569) %0, i32 noundef %1) local_unnamed_addr #4 align 2 {
  %3 = trunc i32 %1 to i8
  %4 = getelementptr inbounds nuw i8, ptr %0, i64 552
  %5 = load ptr, ptr %4, align 8, !tbaa !133
  store i8 %3, ptr %5, align 1, !tbaa !27
  %6 = lshr i32 %1, 8
  %7 = trunc i32 %6 to i8
  %8 = load ptr, ptr %4, align 8, !tbaa !133
  %9 = getelementptr inbounds nuw i8, ptr %8, i64 1
  store i8 %7, ptr %9, align 1, !tbaa !27
  %10 = lshr i32 %1, 16
  %11 = trunc i32 %10 to i8
  %12 = load ptr, ptr %4, align 8, !tbaa !133
  %13 = getelementptr inbounds nuw i8, ptr %12, i64 2
  store i8 %11, ptr %13, align 1, !tbaa !27
  %14 = lshr i32 %1, 24
  %15 = trunc nuw i32 %14 to i8
  %16 = load ptr, ptr %4, align 8, !tbaa !133
  %17 = getelementptr inbounds nuw i8, ptr %16, i64 3
  store i8 %15, ptr %17, align 1, !tbaa !27
  %18 = load ptr, ptr %4, align 8, !tbaa !133
  %19 = getelementptr inbounds nuw i8, ptr %18, i64 4
  store ptr %19, ptr %4, align 8, !tbaa !133
  %20 = getelementptr inbounds nuw i8, ptr %0, i64 544
  %21 = load ptr, ptr %20, align 8, !tbaa !130
  %.not = icmp ult ptr %19, %21
  br i1 %.not, label %35, label %22

22:                                               ; preds = %2
  %23 = getelementptr inbounds nuw i8, ptr %0, i64 536
  %24 = load ptr, ptr %23, align 8, !tbaa !123
  %25 = ptrtoint ptr %19 to i64
  %26 = ptrtoint ptr %24 to i64
  %27 = sub i64 %25, %26
  %28 = icmp sgt i64 %27, 0
  br i1 %28, label %29, label %_ZN2cv9BitStream10writeBlockEv.exit

29:                                               ; preds = %22
  %30 = tail call noundef nonnull align 8 dereferenceable(8) ptr @_ZNSo5writeEPKcl(ptr noundef nonnull align 8 dereferenceable(569) %0, ptr noundef %24, i64 noundef %27)
  %.pre.i = load ptr, ptr %23, align 8, !tbaa !123
  br label %_ZN2cv9BitStream10writeBlockEv.exit

_ZN2cv9BitStream10writeBlockEv.exit:              ; preds = %22, %29
  %31 = phi ptr [ %.pre.i, %29 ], [ %24, %22 ]
  %32 = getelementptr inbounds nuw i8, ptr %0, i64 560
  %33 = load i64, ptr %32, align 8, !tbaa !134
  %34 = add i64 %33, %27
  store i64 %34, ptr %32, align 8, !tbaa !134
  store ptr %31, ptr %4, align 8, !tbaa !133
  br label %35

35:                                               ; preds = %_ZN2cv9BitStream10writeBlockEv.exit, %2
  ret void
}